target datalayout = "e-m:e-p270:32:32-p271:32:32-p272:64:64-i64:64-i128:128-f80:128-n8:16:32:64-S128"
target triple = "x86_64-pc-linux-gnu"

%struct._cmsStage_struct = type { ptr, i32, i32, i32, i32, ptr, ptr, ptr, ptr, ptr }
%struct._cmsPipeline_struct = type { ptr, i32, i32, ptr, ptr, ptr, ptr, ptr, ptr, i32 }

; Function Attrs: nounwind uwtable
define internal i32 @_cmsQuickFloor(double noundef %0) #0 {
  %2 = alloca double, align 8
  store double %0, ptr %2, align 8
  %3 = load double, ptr %2, align 8
  %4 = call double @llvm.floor.f64(double %3)
  %5 = fptosi double %4 to i32
  ret i32 %5
}

; Function Attrs: nounwind uwtable
define internal zeroext i16 @_cmsQuickFloorWord(double noundef %0) #0 {
  %2 = alloca double, align 8
  store double %0, ptr %2, align 8
  %3 = load double, ptr %2, align 8
  %4 = fsub double %3, 3.276700e+04
  %5 = call i32 @_cmsQuickFloor(double noundef %4)
  %6 = trunc i32 %5 to i16
  %7 = zext i16 %6 to i32
  %8 = add i32 %7, 32767
  %9 = trunc i32 %8 to i16
  ret i16 %9
}

; Function Attrs: nounwind uwtable
define internal zeroext i16 @_cmsQuickSaturateWord(double noundef %0) #0 {
  %2 = alloca i16, align 2
  %3 = alloca double, align 8
  store double %0, ptr %3, align 8
  %4 = load double, ptr %3, align 8
  %5 = fadd double %4, 5.000000e-01
  store double %5, ptr %3, align 8
  %6 = load double, ptr %3, align 8
  %7 = fcmp ole double %6, 0.000000e+00
  br i1 %7, label %8, label %9

8:                                                ; preds = %1
  store i16 0, ptr %2, align 2
  br label %16

9:                                                ; preds = %1
  %10 = load double, ptr %3, align 8
  %11 = fcmp oge double %10, 6.553500e+04
  br i1 %11, label %12, label %13

12:                                               ; preds = %9
  store i16 -1, ptr %2, align 2
  br label %16

13:                                               ; preds = %9
  %14 = load double, ptr %3, align 8
  %15 = call zeroext i16 @_cmsQuickFloorWord(double noundef %14)
  store i16 %15, ptr %2, align 2
  br label %16

16:                                               ; preds = %13, %12, %8
  %17 = load i16, ptr %2, align 2
  ret i16 %17
}

; Function Attrs: nounwind uwtable
define internal void @FromFloatTo16(ptr noundef %0, ptr noundef %1, i32 noundef %2) #0 {
  %4 = alloca ptr, align 8
  %5 = alloca ptr, align 8
  %6 = alloca i32, align 4
  %7 = alloca i32, align 4
  store ptr %0, ptr %4, align 8
  store ptr %1, ptr %5, align 8
  store i32 %2, ptr %6, align 4
  store i32 0, ptr %7, align 4
  br label %8

8:                                                ; preds = %25, %3
  %9 = load i32, ptr %7, align 4
  %10 = load i32, ptr %6, align 4
  %11 = icmp ult i32 %9, %10
  br i1 %11, label %12, label %28

12:                                               ; preds = %8
  %13 = load ptr, ptr %4, align 8
  %14 = load i32, ptr %7, align 4
  %15 = zext i32 %14 to i64
  %16 = getelementptr inbounds float, ptr %13, i64 %15
  %17 = load float, ptr %16, align 4
  %18 = fpext float %17 to double
  %19 = fmul double %18, 6.553500e+04
  %20 = call zeroext i16 @_cmsQuickSaturateWord(double noundef %19)
  %21 = load ptr, ptr %5, align 8
  %22 = load i32, ptr %7, align 4
  %23 = zext i32 %22 to i64
  %24 = getelementptr inbounds i16, ptr %21, i64 %23
  store i16 %20, ptr %24, align 2
  br label %25

25:                                               ; preds = %12
  %26 = load i32, ptr %7, align 4
  %27 = add i32 %26, 1
  store i32 %27, ptr %7, align 4
  br label %8, !llvm.loop !56

28:                                               ; preds = %8
  ret void
}

; Function Attrs: nounwind uwtable
define internal void @From16ToFloat(ptr noundef %0, ptr noundef %1, i32 noundef %2) #0 {
  %4 = alloca ptr, align 8
  %5 = alloca ptr, align 8
  %6 = alloca i32, align 4
  %7 = alloca i32, align 4
  store ptr %0, ptr %4, align 8
  store ptr %1, ptr %5, align 8
  store i32 %2, ptr %6, align 4
  store i32 0, ptr %7, align 4
  br label %8

8:                                                ; preds = %24, %3
  %9 = load i32, ptr %7, align 4
  %10 = load i32, ptr %6, align 4
  %11 = icmp ult i32 %9, %10
  br i1 %11, label %12, label %27

12:                                               ; preds = %8
  %13 = load ptr, ptr %4, align 8
  %14 = load i32, ptr %7, align 4
  %15 = zext i32 %14 to i64
  %16 = getelementptr inbounds i16, ptr %13, i64 %15
  %17 = load i16, ptr %16, align 2
  %18 = uitofp i16 %17 to float
  %19 = fdiv float %18, 6.553500e+04
  %20 = load ptr, ptr %5, align 8
  %21 = load i32, ptr %7, align 4
  %22 = zext i32 %21 to i64
  %23 = getelementptr inbounds float, ptr %20, i64 %22
  store float %19, ptr %23, align 4
  br label %24

24:                                               ; preds = %12
  %25 = load i32, ptr %7, align 4
  %26 = add i32 %25, 1
  store i32 %26, ptr %7, align 4
  br label %8, !llvm.loop !57

27:                                               ; preds = %8
  ret void
}

; Function Attrs: nounwind uwtable
define internal void @_LUTeval16(ptr noundef %0, ptr noundef %1, ptr noundef %2) #0 {
  %4 = alloca ptr, align 8
  %5 = alloca ptr, align 8
  %6 = alloca ptr, align 8
  %7 = alloca ptr, align 8
  %8 = alloca ptr, align 8
  %9 = alloca [2 x [128 x float]], align 16
  %10 = alloca i32, align 4
  %11 = alloca i32, align 4
  store ptr %0, ptr %4, align 8
  store ptr %1, ptr %5, align 8
  store ptr %2, ptr %6, align 8
  %12 = load ptr, ptr %6, align 8
  store ptr %12, ptr %7, align 8
  store i32 0, ptr %10, align 4
  %13 = load ptr, ptr %4, align 8
  %14 = load i32, ptr %10, align 4
  %15 = sext i32 %14 to i64
  %16 = getelementptr inbounds [2 x [128 x float]], ptr %9, i64 0, i64 %15
  %17 = getelementptr inbounds [128 x float], ptr %16, i64 0, i64 0
  %18 = load ptr, ptr %7, align 8
  %19 = getelementptr inbounds %struct._cmsPipeline_struct, ptr %18, i32 0, i32 1
  %20 = load i32, ptr %19, align 8
  call void @From16ToFloat(ptr noundef %13, ptr noundef %17, i32 noundef %20)
  %21 = load ptr, ptr %7, align 8
  %22 = getelementptr inbounds %struct._cmsPipeline_struct, ptr %21, i32 0, i32 0
  %23 = load ptr, ptr %22, align 8
  store ptr %23, ptr %8, align 8
  br label %24

24:                                               ; preds = %43, %3
  %25 = load ptr, ptr %8, align 8
  %26 = icmp ne ptr %25, null
  br i1 %26, label %27, label %47

27:                                               ; preds = %24
  %28 = load i32, ptr %10, align 4
  %29 = xor i32 %28, 1
  store i32 %29, ptr %11, align 4
  %30 = load ptr, ptr %8, align 8
  %31 = getelementptr inbounds %struct._cmsStage_struct, ptr %30, i32 0, i32 5
  %32 = load ptr, ptr %31, align 8
  %33 = load i32, ptr %10, align 4
  %34 = sext i32 %33 to i64
  %35 = getelementptr inbounds [2 x [128 x float]], ptr %9, i64 0, i64 %34
  %36 = getelementptr inbounds [128 x float], ptr %35, i64 0, i64 0
  %37 = load i32, ptr %11, align 4
  %38 = sext i32 %37 to i64
  %39 = getelementptr inbounds [2 x [128 x float]], ptr %9, i64 0, i64 %38
  %40 = getelementptr inbounds [128 x float], ptr %39, i64 0, i64 0
  %41 = load ptr, ptr %8, align 8
  call void %32(ptr noundef %36, ptr noundef %40, ptr noundef %41)
  %42 = load i32, ptr %11, align 4
  store i32 %42, ptr %10, align 4
  br label %43

43:                                               ; preds = %27
  %44 = load ptr, ptr %8, align 8
  %45 = getelementptr inbounds %struct._cmsStage_struct, ptr %44, i32 0, i32 9
  %46 = load ptr, ptr %45, align 8
  store ptr %46, ptr %8, align 8
  br label %24, !llvm.loop !41

47:                                               ; preds = %24
  %48 = load i32, ptr %10, align 4
  %49 = sext i32 %48 to i64
  %50 = getelementptr inbounds [2 x [128 x float]], ptr %9, i64 0, i64 %49
  %51 = getelementptr inbounds [128 x float], ptr %50, i64 0, i64 0
  %52 = load ptr, ptr %5, align 8
  %53 = load ptr, ptr %7, align 8
  %54 = getelementptr inbounds %struct._cmsPipeline_struct, ptr %53, i32 0, i32 2
  %55 = load i32, ptr %54, align 4
  call void @FromFloatTo16(ptr noundef %51, ptr noundef %52, i32 noundef %55)
  ret void
}