; Function Attrs: nounwind uwtable
define internal void @_LUTeval16(ptr nocapture noundef readonly %0, ptr nocapture noundef writeonly %1, ptr nocapture noundef readonly %2) #0 {
  %4 = alloca [2 x [128 x float]], align 16
  %5 = getelementptr inbounds i8, ptr %2, i64 8
  %6 = load i32, ptr %5, align 8
  %.not.i = icmp eq i32 %6, 0
  br i1 %.not.i, label %From16ToFloat.exit, label %.lr.ph.preheader.i

.lr.ph.preheader.i:                               ; preds = %3
  %wide.trip.count.i = zext i32 %6 to i64
  br label %.lr.ph.i

.lr.ph.i:                                         ; preds = %.lr.ph.i, %.lr.ph.preheader.i
  %indvars.iv.i = phi i64 [ 0, %.lr.ph.preheader.i ], [ %indvars.iv.next.i, %.lr.ph.i ]
  %7 = getelementptr inbounds i16, ptr %0, i64 %indvars.iv.i
  %8 = load i16, ptr %7, align 2
  %9 = uitofp i16 %8 to float
  %10 = fdiv float %9, 6.553500e+04
  %11 = getelementptr inbounds float, ptr %4, i64 %indvars.iv.i
  store float %10, ptr %11, align 4
  %indvars.iv.next.i = add nuw nsw i64 %indvars.iv.i, 1
  %exitcond.not.i = icmp eq i64 %indvars.iv.next.i, %wide.trip.count.i
  br i1 %exitcond.not.i, label %From16ToFloat.exit, label %.lr.ph.i, !llvm.loop !22

From16ToFloat.exit:                               ; preds = %.lr.ph.i, %3
  %.023 = load ptr, ptr %2, align 8
  %.not24 = icmp eq ptr %.023, null
  br i1 %.not24, label %._crit_edge, label %.lr.ph

.lr.ph:                                           ; preds = %From16ToFloat.exit, %.lr.ph
  %.026 = phi ptr [ %.0, %.lr.ph ], [ %.023, %From16ToFloat.exit ]
  %.01525 = phi i32 [ %12, %.lr.ph ], [ 0, %From16ToFloat.exit ]
  %12 = xor i32 %.01525, 1
  %13 = getelementptr inbounds i8, ptr %.026, i64 24
  %14 = load ptr, ptr %13, align 8
  %15 = zext nneg i32 %.01525 to i64
  %16 = getelementptr inbounds [2 x [128 x float]], ptr %4, i64 0, i64 %15
  %17 = zext nneg i32 %12 to i64
  %18 = getelementptr inbounds [2 x [128 x float]], ptr %4, i64 0, i64 %17
  call void %14(ptr noundef nonnull %16, ptr noundef nonnull %18, ptr noundef nonnull %.026) #18
  %19 = getelementptr inbounds i8, ptr %.026, i64 56
  %.0 = load ptr, ptr %19, align 8
  %.not = icmp eq ptr %.0, null
  br i1 %.not, label %._crit_edge.loopexit, label %.lr.ph, !llvm.loop !45

._crit_edge.loopexit:                             ; preds = %.lr.ph
  %20 = zext nneg i32 %12 to i64
  br label %._crit_edge

._crit_edge:                                      ; preds = %From16ToFloat.exit, %._crit_edge.loopexit
  %.015.lcssa = phi i64 [ %20, %._crit_edge.loopexit ], [ 0, %From16ToFloat.exit ]
  %21 = getelementptr inbounds [2 x [128 x float]], ptr %4, i64 0, i64 %.015.lcssa
  %22 = getelementptr inbounds i8, ptr %2, i64 12
  %23 = load i32, ptr %22, align 4
  %.not.i16 = icmp eq i32 %23, 0
  br i1 %.not.i16, label %FromFloatTo16.exit, label %.lr.ph.preheader.i17

.lr.ph.preheader.i17:                             ; preds = %._crit_edge
  %wide.trip.count.i18 = zext i32 %23 to i64
  br label %.lr.ph.i19

.lr.ph.i19:                                       ; preds = %_cmsQuickSaturateWord.exit.i, %.lr.ph.preheader.i17
  %indvars.iv.i20 = phi i64 [ 0, %.lr.ph.preheader.i17 ], [ %indvars.iv.next.i21, %_cmsQuickSaturateWord.exit.i ]
  %24 = getelementptr inbounds float, ptr %21, i64 %indvars.iv.i20
  %25 = load float, ptr %24, align 4
  %26 = fpext float %25 to double
  %27 = fmul double %26, 6.553500e+04
  %28 = fadd double %27, 5.000000e-01
  %29 = fcmp ugt double %28, 0.000000e+00
  br i1 %29, label %30, label %_cmsQuickSaturateWord.exit.i

30:                                               ; preds = %.lr.ph.i19
  %31 = fcmp ult double %28, 6.553500e+04
  br i1 %31, label %32, label %_cmsQuickSaturateWord.exit.i

32:                                               ; preds = %30
  %33 = fadd double %28, -3.276700e+04
  %34 = call double @llvm.floor.f64(double %33)
  %35 = fptosi double %34 to i32
  %36 = trunc i32 %35 to i16
  %37 = add i16 %36, 32767
  br label %_cmsQuickSaturateWord.exit.i

_cmsQuickSaturateWord.exit.i:                     ; preds = %32, %30, %.lr.ph.i19
  %.0.i.i = phi i16 [ %37, %32 ], [ 0, %.lr.ph.i19 ], [ -1, %30 ]
  %38 = getelementptr inbounds i16, ptr %1, i64 %indvars.iv.i20
  store i16 %.0.i.i, ptr %38, align 2
  %indvars.iv.next.i21 = add nuw nsw i64 %indvars.iv.i20, 1
  %exitcond.not.i22 = icmp eq i64 %indvars.iv.next.i21, %wide.trip.count.i18
  br i1 %exitcond.not.i22, label %FromFloatTo16.exit, label %.lr.ph.i19, !llvm.loop !21

FromFloatTo16.exit:                               ; preds = %_cmsQuickSaturateWord.exit.i, %._crit_edge
  ret void
}